
exploit:     file format elf64-x86-64


Disassembly of section .init:

00000000004003c8 <_init>:
  4003c8:	48 83 ec 08          	sub    $0x8,%rsp
  4003cc:	48 8b 05 25 0c 20 00 	mov    0x200c25(%rip),%rax        # 600ff8 <__gmon_start__>
  4003d3:	48 85 c0             	test   %rax,%rax
  4003d6:	74 05                	je     4003dd <_init+0x15>
  4003d8:	e8 43 00 00 00       	callq  400420 <__gmon_start__@plt>
  4003dd:	48 83 c4 08          	add    $0x8,%rsp
  4003e1:	c3                   	retq   

Disassembly of section .plt:

00000000004003f0 <.plt>:
  4003f0:	ff 35 12 0c 20 00    	pushq  0x200c12(%rip)        # 601008 <_GLOBAL_OFFSET_TABLE_+0x8>
  4003f6:	ff 25 14 0c 20 00    	jmpq   *0x200c14(%rip)        # 601010 <_GLOBAL_OFFSET_TABLE_+0x10>
  4003fc:	0f 1f 40 00          	nopl   0x0(%rax)

0000000000400400 <remove@plt>:
  400400:	ff 25 12 0c 20 00    	jmpq   *0x200c12(%rip)        # 601018 <remove@GLIBC_2.2.5>
  400406:	68 00 00 00 00       	pushq  $0x0
  40040b:	e9 e0 ff ff ff       	jmpq   4003f0 <.plt>

0000000000400410 <__libc_start_main@plt>:
  400410:	ff 25 0a 0c 20 00    	jmpq   *0x200c0a(%rip)        # 601020 <__libc_start_main@GLIBC_2.2.5>
  400416:	68 01 00 00 00       	pushq  $0x1
  40041b:	e9 d0 ff ff ff       	jmpq   4003f0 <.plt>

0000000000400420 <__gmon_start__@plt>:
  400420:	ff 25 02 0c 20 00    	jmpq   *0x200c02(%rip)        # 601028 <__gmon_start__>
  400426:	68 02 00 00 00       	pushq  $0x2
  40042b:	e9 c0 ff ff ff       	jmpq   4003f0 <.plt>

Disassembly of section .text:

0000000000400430 <_start>:
  400430:	31 ed                	xor    %ebp,%ebp
  400432:	49 89 d1             	mov    %rdx,%r9
  400435:	5e                   	pop    %rsi
  400436:	48 89 e2             	mov    %rsp,%rdx
  400439:	48 83 e4 f0          	and    $0xfffffffffffffff0,%rsp
  40043d:	50                   	push   %rax
  40043e:	54                   	push   %rsp
  40043f:	49 c7 c0 90 05 40 00 	mov    $0x400590,%r8
  400446:	48 c7 c1 20 05 40 00 	mov    $0x400520,%rcx
  40044d:	48 c7 c7 02 05 40 00 	mov    $0x400502,%rdi
  400454:	e8 b7 ff ff ff       	callq  400410 <__libc_start_main@plt>
  400459:	f4                   	hlt    
  40045a:	66 0f 1f 44 00 00    	nopw   0x0(%rax,%rax,1)

0000000000400460 <deregister_tm_clones>:
  400460:	b8 40 10 60 00       	mov    $0x601040,%eax
  400465:	48 3d 40 10 60 00    	cmp    $0x601040,%rax
  40046b:	74 13                	je     400480 <deregister_tm_clones+0x20>
  40046d:	b8 00 00 00 00       	mov    $0x0,%eax
  400472:	48 85 c0             	test   %rax,%rax
  400475:	74 09                	je     400480 <deregister_tm_clones+0x20>
  400477:	bf 40 10 60 00       	mov    $0x601040,%edi
  40047c:	ff e0                	jmpq   *%rax
  40047e:	66 90                	xchg   %ax,%ax
  400480:	c3                   	retq   
  400481:	0f 1f 44 00 00       	nopl   0x0(%rax,%rax,1)
  400486:	66 2e 0f 1f 84 00 00 	nopw   %cs:0x0(%rax,%rax,1)
  40048d:	00 00 00 

0000000000400490 <register_tm_clones>:
  400490:	be 40 10 60 00       	mov    $0x601040,%esi
  400495:	48 81 ee 40 10 60 00 	sub    $0x601040,%rsi
  40049c:	48 89 f0             	mov    %rsi,%rax
  40049f:	48 c1 ee 3f          	shr    $0x3f,%rsi
  4004a3:	48 c1 f8 03          	sar    $0x3,%rax
  4004a7:	48 01 c6             	add    %rax,%rsi
  4004aa:	48 d1 fe             	sar    %rsi
  4004ad:	74 11                	je     4004c0 <register_tm_clones+0x30>
  4004af:	b8 00 00 00 00       	mov    $0x0,%eax
  4004b4:	48 85 c0             	test   %rax,%rax
  4004b7:	74 07                	je     4004c0 <register_tm_clones+0x30>
  4004b9:	bf 40 10 60 00       	mov    $0x601040,%edi
  4004be:	ff e0                	jmpq   *%rax
  4004c0:	c3                   	retq   
  4004c1:	0f 1f 44 00 00       	nopl   0x0(%rax,%rax,1)
  4004c6:	66 2e 0f 1f 84 00 00 	nopw   %cs:0x0(%rax,%rax,1)
  4004cd:	00 00 00 

00000000004004d0 <__do_global_dtors_aux>:
  4004d0:	80 3d 69 0b 20 00 00 	cmpb   $0x0,0x200b69(%rip)        # 601040 <__TMC_END__>
  4004d7:	75 17                	jne    4004f0 <__do_global_dtors_aux+0x20>
  4004d9:	55                   	push   %rbp
  4004da:	48 89 e5             	mov    %rsp,%rbp
  4004dd:	e8 7e ff ff ff       	callq  400460 <deregister_tm_clones>
  4004e2:	c6 05 57 0b 20 00 01 	movb   $0x1,0x200b57(%rip)        # 601040 <__TMC_END__>
  4004e9:	5d                   	pop    %rbp
  4004ea:	c3                   	retq   
  4004eb:	0f 1f 44 00 00       	nopl   0x0(%rax,%rax,1)
  4004f0:	c3                   	retq   
  4004f1:	0f 1f 44 00 00       	nopl   0x0(%rax,%rax,1)
  4004f6:	66 2e 0f 1f 84 00 00 	nopw   %cs:0x0(%rax,%rax,1)
  4004fd:	00 00 00 

0000000000400500 <frame_dummy>:
  400500:	eb 8e                	jmp    400490 <register_tm_clones>

0000000000400502 <main>:
  400502:	55                   	push   %rbp
  400503:	48 89 e5             	mov    %rsp,%rbp
  400506:	bf a4 05 40 00       	mov    $0x4005a4,%edi
  40050b:	e8 f0 fe ff ff       	callq  400400 <remove@plt>
  400510:	b8 00 00 00 00       	mov    $0x0,%eax
  400515:	5d                   	pop    %rbp
  400516:	c3                   	retq   
  400517:	66 0f 1f 84 00 00 00 	nopw   0x0(%rax,%rax,1)
  40051e:	00 00 

0000000000400520 <__libc_csu_init>:
  400520:	41 57                	push   %r15
  400522:	41 89 ff             	mov    %edi,%r15d
  400525:	41 56                	push   %r14
  400527:	49 89 f6             	mov    %rsi,%r14
  40052a:	41 55                	push   %r13
  40052c:	49 89 d5             	mov    %rdx,%r13
  40052f:	41 54                	push   %r12
  400531:	4c 8d 25 e0 08 20 00 	lea    0x2008e0(%rip),%r12        # 600e18 <__frame_dummy_init_array_entry>
  400538:	55                   	push   %rbp
  400539:	48 8d 2d e0 08 20 00 	lea    0x2008e0(%rip),%rbp        # 600e20 <__init_array_end>
  400540:	53                   	push   %rbx
  400541:	4c 29 e5             	sub    %r12,%rbp
  400544:	31 db                	xor    %ebx,%ebx
  400546:	48 c1 fd 03          	sar    $0x3,%rbp
  40054a:	48 83 ec 08          	sub    $0x8,%rsp
  40054e:	e8 75 fe ff ff       	callq  4003c8 <_init>
  400553:	48 85 ed             	test   %rbp,%rbp
  400556:	74 1e                	je     400576 <__libc_csu_init+0x56>
  400558:	0f 1f 84 00 00 00 00 	nopl   0x0(%rax,%rax,1)
  40055f:	00 
  400560:	4c 89 ea             	mov    %r13,%rdx
  400563:	4c 89 f6             	mov    %r14,%rsi
  400566:	44 89 ff             	mov    %r15d,%edi
  400569:	41 ff 14 dc          	callq  *(%r12,%rbx,8)
  40056d:	48 83 c3 01          	add    $0x1,%rbx
  400571:	48 39 eb             	cmp    %rbp,%rbx
  400574:	75 ea                	jne    400560 <__libc_csu_init+0x40>
  400576:	48 83 c4 08          	add    $0x8,%rsp
  40057a:	5b                   	pop    %rbx
  40057b:	5d                   	pop    %rbp
  40057c:	41 5c                	pop    %r12
  40057e:	41 5d                	pop    %r13
  400580:	41 5e                	pop    %r14
  400582:	41 5f                	pop    %r15
  400584:	c3                   	retq   
  400585:	90                   	nop
  400586:	66 2e 0f 1f 84 00 00 	nopw   %cs:0x0(%rax,%rax,1)
  40058d:	00 00 00 

0000000000400590 <__libc_csu_fini>:
  400590:	f3 c3                	repz retq 

Disassembly of section .fini:

0000000000400594 <_fini>:
  400594:	48 83 ec 08          	sub    $0x8,%rsp
  400598:	48 83 c4 08          	add    $0x8,%rsp
  40059c:	c3                   	retq   
